; ModuleID = '47/5537.c'
source_filename = "47/5537.c"
target datalayout = "e-m:e-p270:32:32-p271:32:32-p272:64:64-i64:64-f80:128-n8:16:32:64-S128"
target triple = "x86_64-pc-linux-gnu"

@.str = private unnamed_addr constant [3 x i8] c"%d\00", align 1
@.str.1 = private unnamed_addr constant [4 x i8] c"%d \00", align 1

; Function Attrs: noinline nounwind uwtable
define dso_local i32 @main() #0 {
  %1 = alloca i32, align 4
  %2 = alloca [200 x i32], align 16
  %3 = alloca i32, align 4
  %4 = alloca i32, align 4
  store i32 0, i32* %1, align 4
  %5 = call i32 (i8*, ...) @__isoc99_scanf(i8* getelementptr inbounds ([3 x i8], [3 x i8]* @.str, i64 0, i64 0), i32* %3)
  store i32 0, i32* %4, align 4
  br label %6

6:                                                ; preds = %16, %0
  %7 = load i32, i32* %4, align 4
  %8 = load i32, i32* %3, align 4
  %9 = sub nsw i32 %8, 1
  %10 = icmp sle i32 %7, %9
  br i1 %10, label %11, label %19

11:                                               ; preds = %6
  %12 = load i32, i32* %4, align 4
  %13 = sext i32 %12 to i64
  %14 = getelementptr inbounds [200 x i32], [200 x i32]* %2, i64 0, i64 %13
  %15 = call i32 (i8*, ...) @__isoc99_scanf(i8* getelementptr inbounds ([3 x i8], [3 x i8]* @.str, i64 0, i64 0), i32* %14)
  br label %16

16:                                               ; preds = %11
  %17 = load i32, i32* %4, align 4
  %18 = add nsw i32 %17, 1
  store i32 %18, i32* %4, align 4
  br label %6

19:                                               ; preds = %6
  store i32 0, i32* %4, align 4
  br label %20

20:                                               ; preds = %35, %19
  %21 = load i32, i32* %4, align 4
  %22 = load i32, i32* %3, align 4
  %23 = sub nsw i32 %22, 1
  %24 = icmp sle i32 %21, %23
  br i1 %24, label %25, label %38

25:                                               ; preds = %20
  %26 = load i32, i32* %4, align 4
  %27 = sext i32 %26 to i64
  %28 = getelementptr inbounds [200 x i32], [200 x i32]* %2, i64 0, i64 %27
  %29 = load i32, i32* %28, align 4
  %30 = load i32, i32* %4, align 4
  %31 = load i32, i32* %3, align 4
  %32 = add nsw i32 %30, %31
  %33 = sext i32 %32 to i64
  %34 = getelementptr inbounds [200 x i32], [200 x i32]* %2, i64 0, i64 %33
  store i32 %29, i32* %34, align 4
  br label %35

35:                                               ; preds = %25
  %36 = load i32, i32* %4, align 4
  %37 = add nsw i32 %36, 1
  store i32 %37, i32* %4, align 4
  br label %20

38:                                               ; preds = %20
  store i32 0, i32* %4, align 4
  br label %39

39:                                               ; preds = %56, %38
  %40 = load i32, i32* %4, align 4
  %41 = load i32, i32* %3, align 4
  %42 = sub nsw i32 %41, 1
  %43 = icmp sle i32 %40, %42
  br i1 %43, label %44, label %59

44:                                               ; preds = %39
  %45 = load i32, i32* %3, align 4
  %46 = mul nsw i32 2, %45
  %47 = sub nsw i32 %46, 1
  %48 = load i32, i32* %4, align 4
  %49 = sub nsw i32 %47, %48
  %50 = sext i32 %49 to i64
  %51 = getelementptr inbounds [200 x i32], [200 x i32]* %2, i64 0, i64 %50
  %52 = load i32, i32* %51, align 4
  %53 = load i32, i32* %4, align 4
  %54 = sext i32 %53 to i64
  %55 = getelementptr inbounds [200 x i32], [200 x i32]* %2, i64 0, i64 %54
  store i32 %52, i32* %55, align 4
  br label %56

56:                                               ; preds = %44
  %57 = load i32, i32* %4, align 4
  %58 = add nsw i32 %57, 1
  store i32 %58, i32* %4, align 4
  br label %39

59:                                               ; preds = %39
  store i32 0, i32* %4, align 4
  br label %60

60:                                               ; preds = %71, %59
  %61 = load i32, i32* %4, align 4
  %62 = load i32, i32* %3, align 4
  %63 = sub nsw i32 %62, 2
  %64 = icmp sle i32 %61, %63
  br i1 %64, label %65, label %74

65:                                               ; preds = %60
  %66 = load i32, i32* %4, align 4
  %67 = sext i32 %66 to i64
  %68 = getelementptr inbounds [200 x i32], [200 x i32]* %2, i64 0, i64 %67
  %69 = load i32, i32* %68, align 4
  %70 = call i32 (i8*, ...) @printf(i8* getelementptr inbounds ([4 x i8], [4 x i8]* @.str.1, i64 0, i64 0), i32 %69)
  br label %71

71:                                               ; preds = %65
  %72 = load i32, i32* %4, align 4
  %73 = add nsw i32 %72, 1
  store i32 %73, i32* %4, align 4
  br label %60

74:                                               ; preds = %60
  %75 = load i32, i32* %3, align 4
  %76 = sub nsw i32 %75, 1
  %77 = sext i32 %76 to i64
  %78 = getelementptr inbounds [200 x i32], [200 x i32]* %2, i64 0, i64 %77
  %79 = load i32, i32* %78, align 4
  %80 = call i32 (i8*, ...) @printf(i8* getelementptr inbounds ([3 x i8], [3 x i8]* @.str, i64 0, i64 0), i32 %79)
  %81 = load i32, i32* %1, align 4
  ret i32 %81
}

declare dso_local i32 @__isoc99_scanf(i8*, ...) #1

declare dso_local i32 @printf(i8*, ...) #1


!llvm.module.flags = !{!0}
!llvm.ident = !{!1}

!0 = !{i32 1, !"wchar_size", i32 4}
!1 = !{!"clang version 10.0.0-4ubuntu1 "}
